
reset:
B000  78       SEI
B001  D8       CLD
B002  A2 FF    LDX #$FF
B004  9A       TXS
B005  64 D2    STZ $D2
B007  64 D3    STZ $D3
B009  20 30 E0 JSR LE030
B00C  A9 19    LDA #$19
B00E  A2 BF    LDX #$BF
B010  20 60 B2 JSR print_str
B013  00       BRK

irq_entry:
B014  48       PHA
B015  8A       TXA
B016  48       PHA
B017  98       TYA
B018  48       PHA
B019  BA       TSX
B01A  BD 04 01 LDA $0104,X
B01D  29 10    AND #$10
B01F  D0 09    BNE brk_entry

irq_restore:
B021  20 12 F0 JSR LF012
B024  7A       PLY
B025  FA       PLX
B026  68       PLA
B027  40       RTI

nmi_entry:
B028  40       RTI

print_context:
B029  BA       TSX

brk_entry:
B02A  68       PLA
B02B  8D 45 02 STA reg_y
B02E  68       PLA
B02F  8D 44 02 STA reg_x
B032  68       PLA
B033  8D 43 02 STA reg_a
B036  68       PLA
B037  8D 42 02 STA reg_sr
B03A  68       PLA
B03B  8D 41 02 STA reg_pcl
B03E  68       PLA
B03F  8D 40 02 STA reg_pch
B042  BA       TSX
B043  8E 46 02 STX reg_sp
B046  D8       CLD
B047  38       SEC
B048  AD 41 02 LDA reg_pcl
B04B  E9 02    SBC #$02
B04D  8D 41 02 STA reg_pcl
B050  AD 40 02 LDA reg_pch
B053  E9 00    SBC #$00
B055  8D 40 02 STA reg_pch

monitor_entry:
B058  58       CLI
B059  20 37 B1 JSR cmd_regs
B05C  20 0B B5 JSR print_prompt

monitor_loop:
B05F  20 12 B5 JSR getline
B062  A9 00    LDA #$00
B064  85 C2    STA $C2
B066  A9 02    LDA #$02
B068  85 C3    STA $C3

execute_line:
B06A  20 20 B4 JSR skip_spaces
B06D  A0 00    LDY #$00
B06F  B1 C2    LDA ($C2),Y
B071  F0 0A    BEQ exec_done
B073  20 2F B4 JSR toupper
B076  91 C2    STA ($C2),Y
B078  20 83 B0 JSR dispatch_command
B07B  B0 03    BCS exec_nopr

exec_done:
B07D  20 0B B5 JSR print_prompt

exec_nopr:
B080  4C 5F B0 JMP monitor_loop

dispatch_command:
B083  A0 00    LDY #$00
B085  B1 C2    LDA ($C2),Y
B087  85 D6    STA $D6
B089  A2 00    LDX #$00

dispatch_loop:
B08B  BD FD BE LDA cmd_chars,X
B08E  F0 19    BEQ dispatch_error
B090  C5 D6    CMP $D6
B092  F0 04    BEQ dispatch_found
B094  E8       INX
B095  4C 8B B0 JMP dispatch_loop

dispatch_found:
B098  8A       TXA
B099  0A       ASL
B09A  AA       TAX
B09B  BD 07 BF LDA cmd_addrs,X
B09E  85 C4    STA $C4
B0A0  E8       INX
B0A1  BD 07 BF LDA cmd_addrs,X
B0A4  85 C5    STA $C5
B0A6  6C C4 00 JMP (jmpvec)

dispatch_error:
B0A9  4C 27 B2 JMP cmd_error

cmd_reset:
B0AC  4C 00 B0 JMP reset

cmd_mem:
B0AF  20 19 B4 JSR advance_lineptr
B0B2  20 AC B2 JSR next_token
B0B5  90 14    BCC mem_default
B0B7  20 FD B2 JSR parse_word
B0BA  20 43 B4 JSR copy_T0_R0
B0BD  20 AC B2 JSR next_token
B0C0  90 0C    BCC mem_one_param
B0C2  20 FD B2 JSR parse_word
B0C5  20 4C B4 JSR copy_T0_R1
B0C8  4C D6 B0 JMP mem_prepare

mem_default:
B0CB  20 67 B4 JSR copy_MEM_R0

mem_one_param:
B0CE  20 55 B4 JSR copy_R0_R1
B0D1  A9 5F    LDA #$5F
B0D3  20 96 B4 JSR add_R1_A

mem_prepare:
B0D6  20 AC B2 JSR next_token
B0D9  90 03    BCC mem_prepare_ok
B0DB  4C 27 B2 JMP cmd_error

mem_prepare_ok:
B0DE  20 5E B4 JSR copy_R0_R2

mem_loop:
B0E1  20 41 B5 JSR check_abort
B0E4  B0 16    BCS mem_abort
B0E6  20 2C B2 JSR dump_line
B0E9  A9 08    LDA #$08
B0EB  20 A5 B4 JSR add_R2_A
B0EE  B0 07    BCS mem_ok
B0F0  20 C2 B4 JSR cmp_R2_R1
B0F3  90 EC    BCC mem_loop
B0F5  F0 EA    BEQ mem_loop

mem_ok:
B0F7  20 70 B4 JSR copy_R2_MEM
B0FA  18       CLC
B0FB  60       RTS

mem_abort:
B0FC  4C 27 B2 JMP cmd_error

cmd_memedit:
B0FF  20 19 B4 JSR advance_lineptr
B102  20 FD B2 JSR parse_word
B105  20 43 B4 JSR copy_T0_R0
B108  64 D4    STZ $D4

write_loop:
B10A  A5 D4    LDA $D4
B10C  C9 08    CMP #$08
B10E  B0 16    BCS write_done
B110  20 AC B2 JSR next_token
B113  90 11    BCC write_done
B115  20 F0 B2 JSR parse_byte
B118  A0 00    LDY #$00
B11A  A5 CE    LDA $CE
B11C  91 C6    STA ($C6),Y
B11E  20 79 B4 JSR inc_R0
B121  E6 D4    INC $D4
B123  4C 0A B1 JMP write_loop

write_done:
B126  A5 D4    LDA $D4
B128  F0 0A    BEQ write_error
B12A  A5 C6    LDA $C6
B12C  85 D2    STA $D2
B12E  A5 C7    LDA $C7
B130  85 D3    STA $D3
B132  18       CLC
B133  60       RTS

write_error:
B134  4C 27 B2 JMP cmd_error

cmd_regs:
B137  A9 29    LDA #$29
B139  A2 BF    LDX #$BF
B13B  20 60 B2 JSR print_str

print_reg_line:
B13E  A9 3B    LDA #$3B
B140  20 3E B5 JSR putchar
B143  20 01 B5 JSR print_space
B146  AD 40 02 LDA reg_pch
B149  AE 41 02 LDX reg_pcl
B14C  20 E8 B4 JSR print_hex16
B14F  20 01 B5 JSR print_space
B152  AD 43 02 LDA reg_a
B155  20 CD B4 JSR print_hex8
B158  20 01 B5 JSR print_space
B15B  AD 44 02 LDA reg_x
B15E  20 CD B4 JSR print_hex8
B161  20 01 B5 JSR print_space
B164  AD 45 02 LDA reg_y
B167  20 CD B4 JSR print_hex8
B16A  20 01 B5 JSR print_space
B16D  AD 46 02 LDA reg_sp
B170  20 CD B4 JSR print_hex8
B173  20 01 B5 JSR print_space
B176  A9 25    LDA #$25
B178  20 3E B5 JSR putchar
B17B  AD 42 02 LDA reg_sr
B17E  20 78 B2 JSR print_status_bits
B181  20 06 B5 JSR newline
B184  18       CLC
B185  60       RTS

cmd_regedit:
B186  20 19 B4 JSR advance_lineptr
B189  20 AC B2 JSR next_token
B18C  90 56    BCC regedit_error
B18E  20 FD B2 JSR parse_word
B191  A5 CE    LDA $CE
B193  8D 41 02 STA reg_pcl
B196  A5 CF    LDA $CF
B198  8D 40 02 STA reg_pch
B19B  20 AC B2 JSR next_token
B19E  90 3F    BCC regedit_done
B1A0  20 F0 B2 JSR parse_byte
B1A3  A5 CE    LDA $CE
B1A5  8D 43 02 STA reg_a
B1A8  20 AC B2 JSR next_token
B1AB  90 32    BCC regedit_done
B1AD  20 F0 B2 JSR parse_byte
B1B0  A5 CE    LDA $CE
B1B2  8D 44 02 STA reg_x
B1B5  20 AC B2 JSR next_token
B1B8  90 25    BCC regedit_done
B1BA  20 F0 B2 JSR parse_byte
B1BD  A5 CE    LDA $CE
B1BF  8D 45 02 STA reg_y
B1C2  20 AC B2 JSR next_token
B1C5  90 18    BCC regedit_done
B1C7  20 F0 B2 JSR parse_byte
B1CA  A5 CE    LDA $CE
B1CC  8D 46 02 STA reg_sp
B1CF  20 AC B2 JSR next_token
B1D2  90 0B    BCC regedit_done
B1D4  20 F0 B2 JSR parse_byte
B1D7  A5 CE    LDA $CE
B1D9  8D 42 02 STA reg_sr
B1DC  20 AC B2 JSR next_token

regedit_done:
B1DF  20 37 B1 JSR cmd_regs
B1E2  18       CLC
B1E3  60       RTS

regedit_error:
B1E4  4C 27 B2 JMP cmd_error

cmd_go:
B1E7  20 19 B4 JSR advance_lineptr
B1EA  20 AC B2 JSR next_token
B1ED  90 15    BCC go_now
B1EF  20 FD B2 JSR parse_word
B1F2  A5 CE    LDA $CE
B1F4  8D 41 02 STA reg_pcl
B1F7  A5 CF    LDA $CF
B1F9  8D 40 02 STA reg_pch
B1FC  20 AC B2 JSR next_token
B1FF  90 03    BCC go_now
B201  4C 27 B2 JMP cmd_error

go_now:
B204  AE 46 02 LDX reg_sp
B207  9A       TXS
B208  AD 40 02 LDA reg_pch
B20B  48       PHA
B20C  AD 41 02 LDA reg_pcl
B20F  48       PHA
B210  AD 42 02 LDA reg_sr
B213  48       PHA
B214  AD 43 02 LDA reg_a
B217  AE 44 02 LDX reg_x
B21A  AC 45 02 LDY reg_y
B21D  40       RTI

cmd_help:
B21E  A9 4B    LDA #$4B
B220  A2 BF    LDX #$BF
B222  20 60 B2 JSR print_str
B225  18       CLC
B226  60       RTS

cmd_error:
B227  20 30 B5 JSR print_error
B22A  38       SEC
B22B  60       RTS

dump_line:
B22C  A9 3E    LDA #$3E
B22E  20 3E B5 JSR putchar
B231  20 01 B5 JSR print_space
B234  A5 CA    LDA $CA
B236  85 CE    STA $CE
B238  A5 CB    LDA $CB
B23A  85 CF    STA $CF
B23C  20 A2 B2 JSR print_address_T0
B23F  A0 00    LDY #$00

dump_hex_loop:
B241  B1 CA    LDA ($CA),Y
B243  20 CD B4 JSR print_hex8
B246  20 01 B5 JSR print_space
B249  C8       INY
B24A  C0 08    CPY #$08
B24C  D0 F3    BNE dump_hex_loop
B24E  20 01 B5 JSR print_space
B251  A0 00    LDY #$00

dump_ascii_loop:
B253  B1 CA    LDA ($CA),Y
B255  20 F1 B4 JSR print_ascii
B258  C8       INY
B259  C0 08    CPY #$08
B25B  D0 F6    BNE dump_ascii_loop
B25D  4C 06 B5 JMP newline

print_str:
B260  5A       PHY
B261  85 CE    STA $CE
B263  86 CF    STX $CF
B265  A0 00    LDY #$00

print_str_loop:
B267  B1 CE    LDA ($CE),Y
B269  F0 0B    BEQ print_str_done
B26B  20 3E B5 JSR putchar
B26E  C8       INY
B26F  D0 F6    BNE print_str_loop
B271  E6 CF    INC $CF
B273  4C 67 B2 JMP print_str_loop

print_str_done:
B276  7A       PLY
B277  60       RTS

print_status_bits:
B278  85 D6    STA $D6
B27A  06 D6    ASL $D6
B27C  20 96 B2 JSR print_bit_c
B27F  06 D6    ASL $D6
B281  20 96 B2 JSR print_bit_c
B284  A9 2D    LDA #$2D
B286  20 3E B5 JSR putchar
B289  06 D6    ASL $D6
B28B  A2 05    LDX #$05

ps_loop:
B28D  06 D6    ASL $D6
B28F  20 96 B2 JSR print_bit_c
B292  CA       DEX
B293  D0 F8    BNE ps_loop
B295  60       RTS

print_bit_c:
B296  90 05    BCC ps_zero
B298  A9 31    LDA #$31
B29A  4C 3E B5 JMP putchar

ps_zero:
B29D  A9 30    LDA #$30
B29F  4C 3E B5 JMP putchar

print_address_T0:
B2A2  A5 CF    LDA $CF
B2A4  A6 CE    LDX $CE
B2A6  20 E8 B4 JSR print_hex16
B2A9  4C 01 B5 JMP print_space

next_token:
B2AC  20 20 B4 JSR skip_spaces
B2AF  A0 00    LDY #$00
B2B1  B1 C2    LDA ($C2),Y
B2B3  F0 02    BEQ token_eol
B2B5  38       SEC
B2B6  60       RTS

token_eol:
B2B7  18       CLC
B2B8  60       RTS

parse_param:
B2B9  20 20 B4 JSR skip_spaces
B2BC  A0 00    LDY #$00
B2BE  B1 C2    LDA ($C2),Y
B2C0  F0 2B    BEQ param_error
B2C2  C9 24    CMP #$24
B2C4  F0 0F    BEQ parse_hex_pref
B2C6  C9 2B    CMP #$2B
B2C8  F0 11    BEQ parse_dec
B2CA  C9 25    CMP #$25
B2CC  F0 13    BEQ parse_bin
B2CE  C9 27    CMP #$27
B2D0  F0 15    BEQ parse_ascii
B2D2  4C 5B B3 JMP parse_hex

parse_hex_pref:
B2D5  20 19 B4 JSR advance_lineptr
B2D8  4C 5B B3 JMP parse_hex

parse_dec:
B2DB  20 19 B4 JSR advance_lineptr
B2DE  4C A2 B3 JMP parse_decimal

parse_bin:
B2E1  20 19 B4 JSR advance_lineptr
B2E4  4C 14 B3 JMP parse_binary

parse_ascii:
B2E7  20 19 B4 JSR advance_lineptr
B2EA  4C 00 B3 JMP parse_ascii_char

param_error:
B2ED  4C 27 B2 JMP cmd_error

parse_byte:
B2F0  20 B9 B2 JSR parse_param
B2F3  A5 D5    LDA $D5
B2F5  C9 01    CMP #$01
B2F7  F0 03    BEQ parse_byte_ok
B2F9  4C 27 B2 JMP cmd_error

parse_byte_ok:
B2FC  60       RTS

parse_word:
B2FD  4C B9 B2 JMP parse_param

parse_ascii_char:
B300  A0 00    LDY #$00
B302  B1 C2    LDA ($C2),Y
B304  F0 0B    BEQ ascii_error
B306  85 CE    STA $CE
B308  64 CF    STZ $CF
B30A  A9 01    LDA #$01
B30C  85 D5    STA $D5
B30E  4C 19 B4 JMP advance_lineptr

ascii_error:
B311  4C 27 B2 JMP cmd_error

parse_binary:
B314  64 CE    STZ $CE
B316  64 CF    STZ $CF
B318  64 D6    STZ $D6

bin_loop:
B31A  A0 00    LDY #$00
B31C  B1 C2    LDA ($C2),Y
B31E  C9 30    CMP #$30
B320  F0 0B    BEQ bin_zero
B322  C9 31    CMP #$31
B324  F0 17    BEQ bin_one
B326  C9 2D    CMP #$2D
B328  F0 13    BEQ bin_one
B32A  4C 4F B3 JMP bin_done

bin_zero:
B32D  A5 D6    LDA $D6
B32F  C9 08    CMP #$08
B331  B0 25    BCS bin_error
B333  06 CE    ASL $CE
B335  20 19 B4 JSR advance_lineptr
B338  E6 D6    INC $D6
B33A  4C 1A B3 JMP bin_loop

bin_one:
B33D  A5 D6    LDA $D6
B33F  C9 08    CMP #$08
B341  B0 15    BCS bin_error
B343  06 CE    ASL $CE
B345  E6 CE    INC $CE
B347  20 19 B4 JSR advance_lineptr
B34A  E6 D6    INC $D6
B34C  4C 1A B3 JMP bin_loop

bin_done:
B34F  A5 D6    LDA $D6
B351  F0 05    BEQ bin_error
B353  A9 01    LDA #$01
B355  85 D5    STA $D5
B357  60       RTS

bin_error:
B358  4C 27 B2 JMP cmd_error

parse_hex:
B35B  64 CE    STZ $CE
B35D  64 CF    STZ $CF
B35F  64 D6    STZ $D6

hex_loop:
B361  A0 00    LDY #$00
B363  B1 C2    LDA ($C2),Y
B365  20 F0 B3 JSR hex_digit
B368  B0 1C    BCS hex_done
B36A  06 CE    ASL $CE
B36C  26 CF    ROL $CF
B36E  06 CE    ASL $CE
B370  26 CF    ROL $CF
B372  06 CE    ASL $CE
B374  26 CF    ROL $CF
B376  06 CE    ASL $CE
B378  26 CF    ROL $CF
B37A  05 CE    ORA $CE
B37C  85 CE    STA $CE
B37E  20 19 B4 JSR advance_lineptr
B381  E6 D6    INC $D6
B383  4C 61 B3 JMP hex_loop

hex_done:
B386  A5 D6    LDA $D6
B388  F0 15    BEQ hex_error
B38A  C9 03    CMP #$03
B38C  90 07    BCC hex_byte
B38E  C9 05    CMP #$05
B390  90 08    BCC hex_word
B392  4C 27 B2 JMP cmd_error

hex_byte:
B395  A9 01    LDA #$01
B397  85 D5    STA $D5
B399  60       RTS

hex_word:
B39A  A9 02    LDA #$02
B39C  85 D5    STA $D5
B39E  60       RTS

hex_error:
B39F  4C 27 B2 JMP cmd_error

parse_decimal:
B3A2  64 CE    STZ $CE
B3A4  64 CF    STZ $CF
B3A6  64 D5    STZ $D5

dec_loop:
B3A8  A0 00    LDY #$00
B3AA  B1 C2    LDA ($C2),Y
B3AC  C9 30    CMP #$30
B3AE  90 2B    BCC dec_done
B3B0  C9 3A    CMP #$3A
B3B2  B0 27    BCS dec_done
B3B4  38       SEC
B3B5  E9 30    SBC #$30
B3B7  85 D6    STA $D6
B3B9  20 3A B4 JSR copy_T0_T1
B3BC  64 CE    STZ $CE
B3BE  64 CF    STZ $CF
B3C0  A2 0A    LDX #$0A

dec_mul_loop:
B3C2  20 B4 B4 JSR add_T1_T0
B3C5  CA       DEX
B3C6  D0 FA    BNE dec_mul_loop
B3C8  18       CLC
B3C9  A5 CE    LDA $CE
B3CB  65 D6    ADC $D6
B3CD  85 CE    STA $CE
B3CF  90 02    BCC dec_next
B3D1  E6 CF    INC $CF

dec_next:
B3D3  20 19 B4 JSR advance_lineptr
B3D6  E6 D5    INC $D5
B3D8  4C A8 B3 JMP dec_loop

dec_done:
B3DB  A5 D5    LDA $D5
B3DD  F0 0E    BEQ dec_error
B3DF  A5 CF    LDA $CF
B3E1  F0 05    BEQ dec_byte
B3E3  A9 02    LDA #$02
B3E5  85 D5    STA $D5
B3E7  60       RTS

dec_byte:
B3E8  A9 01    LDA #$01
B3EA  85 D5    STA $D5
B3EC  60       RTS

dec_error:
B3ED  4C 27 B2 JMP cmd_error

hex_digit:
B3F0  C9 30    CMP #$30
B3F2  90 23    BCC hex_bad
B3F4  C9 3A    CMP #$3A
B3F6  90 1A    BCC hex_num
B3F8  C9 41    CMP #$41
B3FA  90 04    BCC hex_lower
B3FC  C9 47    CMP #$47
B3FE  90 0D    BCC hex_upper

hex_lower:
B400  C9 61    CMP #$61
B402  90 13    BCC hex_bad
B404  C9 67    CMP #$67
B406  B0 0F    BCS hex_bad
B408  38       SEC
B409  E9 57    SBC #$57
B40B  18       CLC
B40C  60       RTS

hex_upper:
B40D  38       SEC
B40E  E9 37    SBC #$37
B410  18       CLC
B411  60       RTS

hex_num:
B412  38       SEC
B413  E9 30    SBC #$30
B415  18       CLC
B416  60       RTS

hex_bad:
B417  38       SEC
B418  60       RTS

advance_lineptr:
B419  E6 C2    INC $C2
B41B  D0 02    BNE ptr_done
B41D  E6 C3    INC $C3

ptr_done:
B41F  60       RTS

skip_spaces:
B420  A0 00    LDY #$00
B422  B1 C2    LDA ($C2),Y
B424  C9 20    CMP #$20
B426  D0 06    BNE skip_done
B428  20 19 B4 JSR advance_lineptr
B42B  4C 20 B4 JMP skip_spaces

skip_done:
B42E  60       RTS

toupper:
B42F  C9 61    CMP #$61
B431  90 06    BCC upper_done
B433  C9 7B    CMP #$7B
B435  B0 02    BCS upper_done
B437  29 DF    AND #$DF

upper_done:
B439  60       RTS

copy_T0_T1:
B43A  A5 CE    LDA $CE
B43C  85 D0    STA $D0
B43E  A5 CF    LDA $CF
B440  85 D1    STA $D1
B442  60       RTS

copy_T0_R0:
B443  A5 CE    LDA $CE
B445  85 C6    STA $C6
B447  A5 CF    LDA $CF
B449  85 C7    STA $C7
B44B  60       RTS

copy_T0_R1:
B44C  A5 CE    LDA $CE
B44E  85 C8    STA $C8
B450  A5 CF    LDA $CF
B452  85 C9    STA $C9
B454  60       RTS

copy_R0_R1:
B455  A5 C6    LDA $C6
B457  85 C8    STA $C8
B459  A5 C7    LDA $C7
B45B  85 C9    STA $C9
B45D  60       RTS

copy_R0_R2:
B45E  A5 C6    LDA $C6
B460  85 CA    STA $CA
B462  A5 C7    LDA $C7
B464  85 CB    STA $CB
B466  60       RTS

copy_MEM_R0:
B467  A5 D2    LDA $D2
B469  85 C6    STA $C6
B46B  A5 D3    LDA $D3
B46D  85 C7    STA $C7
B46F  60       RTS

copy_R2_MEM:
B470  A5 CA    LDA $CA
B472  85 D2    STA $D2
B474  A5 CB    LDA $CB
B476  85 D3    STA $D3
B478  60       RTS

inc_R0:
B479  E6 C6    INC $C6
B47B  D0 02    BNE inc_r0_done
B47D  E6 C7    INC $C7

inc_r0_done:
B47F  60       RTS

inc_R2:
B480  E6 CA    INC $CA
B482  D0 02    BNE inc_r2_done
B484  E6 CB    INC $CB

inc_r2_done:
B486  60       RTS

add_R0_A:
B487  18       CLC
B488  65 C6    ADC $C6
B48A  85 C6    STA $C6
B48C  90 04    BCC add_r0_no_wrap
B48E  E6 C7    INC $C7
B490  F0 02    BEQ add_r0_wrap

add_r0_no_wrap:
B492  18       CLC
B493  60       RTS

add_r0_wrap:
B494  38       SEC
B495  60       RTS

add_R1_A:
B496  18       CLC
B497  65 C8    ADC $C8
B499  85 C8    STA $C8
B49B  90 04    BCC add_r1_no_wrap
B49D  E6 C9    INC $C9
B49F  F0 02    BEQ add_r1_wrap

add_r1_no_wrap:
B4A1  18       CLC
B4A2  60       RTS

add_r1_wrap:
B4A3  38       SEC
B4A4  60       RTS

add_R2_A:
B4A5  18       CLC
B4A6  65 CA    ADC $CA
B4A8  85 CA    STA $CA
B4AA  90 04    BCC add_r2_no_wrap
B4AC  E6 CB    INC $CB
B4AE  F0 02    BEQ add_r2_wrap

add_r2_no_wrap:
B4B0  18       CLC
B4B1  60       RTS

add_r2_wrap:
B4B2  38       SEC
B4B3  60       RTS

add_T1_T0:
B4B4  18       CLC
B4B5  A5 CE    LDA $CE
B4B7  65 D0    ADC $D0
B4B9  85 CE    STA $CE
B4BB  A5 CF    LDA $CF
B4BD  65 D1    ADC $D1
B4BF  85 CF    STA $CF
B4C1  60       RTS

cmp_R2_R1:
B4C2  A5 CB    LDA $CB
B4C4  C5 C9    CMP $C9
B4C6  D0 04    BNE cmp_r2_r1_done
B4C8  A5 CA    LDA $CA
B4CA  C5 C8    CMP $C8

cmp_r2_r1_done:
B4CC  60       RTS

print_hex8:
B4CD  48       PHA
B4CE  4A       LSR
B4CF  4A       LSR
B4D0  4A       LSR
B4D1  4A       LSR
B4D2  20 D8 B4 JSR print_hex_digit
B4D5  68       PLA
B4D6  29 0F    AND #$0F

print_hex_digit:
B4D8  C9 0A    CMP #$0A
B4DA  90 06    BCC print_hex_num
B4DC  18       CLC
B4DD  69 37    ADC #$37
B4DF  4C 3E B5 JMP putchar

print_hex_num:
B4E2  18       CLC
B4E3  69 30    ADC #$30
B4E5  4C 3E B5 JMP putchar

print_hex16:
B4E8  DA       PHX
B4E9  20 CD B4 JSR print_hex8
B4EC  FA       PLX
B4ED  8A       TXA
B4EE  4C CD B4 JMP print_hex8

print_ascii:
B4F1  C9 20    CMP #$20
B4F3  90 07    BCC ascii_dot
B4F5  C9 7F    CMP #$7F
B4F7  B0 03    BCS ascii_dot
B4F9  4C 3E B5 JMP putchar

ascii_dot:
B4FC  A9 2E    LDA #$2E
B4FE  4C 3E B5 JMP putchar

print_space:
B501  A9 20    LDA #$20
B503  4C 3E B5 JMP putchar

newline:
B506  A9 0D    LDA #$0D
B508  4C 3E B5 JMP putchar

print_prompt:
B50B  A9 47    LDA #$47
B50D  A2 BF    LDX #$BF
B50F  4C 60 B2 JMP print_str

getline:
B512  A2 00    LDX #$00

getline_loop:
B514  20 38 B5 JSR getchar
B517  C9 0D    CMP #$0D
B519  F0 0F    BEQ getline_done
B51B  C9 0A    CMP #$0A
B51D  F0 0B    BEQ getline_done
B51F  E0 3B    CPX #$3B
B521  B0 F1    BCS getline_loop
B523  9D 00 02 STA linebuf,X
B526  E8       INX
B527  4C 14 B5 JMP getline_loop

getline_done:
B52A  A9 00    LDA #$00
B52C  9D 00 02 STA linebuf,X
B52F  60       RTS

print_error:
B530  A9 3F    LDA #$3F
B532  20 3E B5 JSR putchar
B535  4C 06 B5 JMP newline

getchar:
B538  20 00 F0 JSR LF000
B53B  F0 FB    BEQ getchar
B53D  60       RTS

putchar:
B53E  4C 03 F0 JMP LF003

check_abort:
B541  18       CLC
B542  60       RTS

cmd_disasm:
B543  20 19 B4 JSR advance_lineptr
B546  20 AC B2 JSR next_token
B549  90 14    BCC dis_default
B54B  20 FD B2 JSR parse_word
B54E  20 43 B4 JSR copy_T0_R0
B551  20 AC B2 JSR next_token
B554  90 0C    BCC dis_one_param
B556  20 FD B2 JSR parse_word
B559  20 4C B4 JSR copy_T0_R1
B55C  4C 6C B5 JMP dis_prepare_range

dis_default:
B55F  20 67 B4 JSR copy_MEM_R0

dis_one_param:
B562  20 55 B4 JSR copy_R0_R1
B565  A9 0C    LDA #$0C
B567  85 D4    STA $D4
B569  4C 74 B5 JMP dis_prepare_count

dis_prepare_range:
B56C  20 AC B2 JSR next_token
B56F  90 21    BCC dis_range_ok
B571  4C 27 B2 JMP cmd_error

dis_prepare_count:
B574  20 AC B2 JSR next_token
B577  90 03    BCC dis_count_ok
B579  4C 27 B2 JMP cmd_error

dis_count_ok:
B57C  20 5E B4 JSR copy_R0_R2

dis_loop_count:
B57F  20 41 B5 JSR check_abort
B582  B0 2D    BCS dis_abort
B584  20 B4 B5 JSR disasm_line
B587  B0 23    BCS dis_done
B589  C6 D4    DEC $D4
B58B  D0 F2    BNE dis_loop_count
B58D  20 70 B4 JSR copy_R2_MEM
B590  18       CLC
B591  60       RTS

dis_range_ok:
B592  20 5E B4 JSR copy_R0_R2

dis_loop_range:
B595  20 41 B5 JSR check_abort
B598  B0 17    BCS dis_abort
B59A  20 C2 B4 JSR cmp_R2_R1
B59D  90 05    BCC dis_do_line
B59F  F0 03    BEQ dis_do_line
B5A1  4C AC B5 JMP dis_done

dis_do_line:
B5A4  20 B4 B5 JSR disasm_line
B5A7  B0 03    BCS dis_done
B5A9  4C 95 B5 JMP dis_loop_range

dis_done:
B5AC  20 70 B4 JSR copy_R2_MEM
B5AF  18       CLC
B5B0  60       RTS

dis_abort:
B5B1  4C 27 B2 JMP cmd_error

disasm_line:
B5B4  20 E5 B5 JSR print_disasm_address
B5B7  A0 00    LDY #$00
B5B9  B1 CA    LDA ($CA),Y
B5BB  85 CE    STA $CE
B5BD  AA       TAX
B5BE  BD 26 BC LDA mode_table,X
B5C1  85 CC    STA $CC
B5C3  20 56 B8 JSR get_oplen_from_mode
B5C6  85 CD    STA $CD
B5C8  20 40 B8 JSR get_mnemonic_id_x
B5CB  20 44 B8 JSR get_mnemonic_ptr_id
B5CE  20 F2 B5 JSR print_disasm_bytes
B5D1  20 01 B5 JSR print_space
B5D4  20 01 B5 JSR print_space
B5D7  20 22 B6 JSR print_mnemonic
B5DA  20 2C B6 JSR print_operand
B5DD  20 06 B5 JSR newline
B5E0  A5 CD    LDA $CD
B5E2  4C A5 B4 JMP add_R2_A

print_disasm_address:
B5E5  A5 CB    LDA $CB
B5E7  A6 CA    LDX $CA
B5E9  20 E8 B4 JSR print_hex16
B5EC  20 01 B5 JSR print_space
B5EF  4C 01 B5 JMP print_space

print_disasm_bytes:
B5F2  A0 00    LDY #$00

pdb_real_loop:
B5F4  C4 CD    CPY $CD
B5F6  F0 0E    BEQ pdb_pad
B5F8  B1 CA    LDA ($CA),Y
B5FA  20 CD B4 JSR print_hex8
B5FD  20 01 B5 JSR print_space
B600  C8       INY
B601  C0 03    CPY #$03
B603  D0 EF    BNE pdb_real_loop
B605  60       RTS

pdb_pad:
B606  C0 03    CPY #$03
B608  F0 11    BEQ pdb_done
B60A  A9 20    LDA #$20
B60C  20 3E B5 JSR putchar
B60F  A9 20    LDA #$20
B611  20 3E B5 JSR putchar
B614  20 01 B5 JSR print_space
B617  C8       INY
B618  4C 06 B6 JMP pdb_pad

pdb_done:
B61B  60       RTS

print_disasm_gap:
B61C  20 01 B5 JSR print_space
B61F  4C 01 B5 JMP print_space

print_mnemonic:
B622  A5 D0    LDA $D0
B624  A6 D1    LDX $D1
B626  20 60 B2 JSR print_str
B629  4C 01 B5 JMP print_space

print_operand:
B62C  A5 CC    LDA $CC
B62E  0A       ASL
B62F  AA       TAX
B630  BD 8F B7 LDA operand_vecs,X
B633  85 C4    STA $C4
B635  E8       INX
B636  BD 8F B7 LDA operand_vecs,X
B639  85 C5    STA $C5
B63B  6C C4 00 JMP (jmpvec)

fmt_imp:
B63E  60       RTS

fmt_acc:
B63F  20 01 B5 JSR print_space
B642  A9 41    LDA #$41
B644  4C 3E B5 JMP putchar

fmt_imm:
B647  A9 23    LDA #$23
B649  20 3E B5 JSR putchar
B64C  A9 24    LDA #$24
B64E  20 3E B5 JSR putchar
B651  A0 01    LDY #$01
B653  B1 CA    LDA ($CA),Y
B655  4C CD B4 JMP print_hex8

fmt_zp:
B658  20 01 B5 JSR print_space

fmt_zp2:
B65B  A9 24    LDA #$24
B65D  20 3E B5 JSR putchar
B660  A0 01    LDY #$01
B662  B1 CA    LDA ($CA),Y
B664  4C CD B4 JMP print_hex8

fmt_zpx:
B667  20 58 B6 JSR fmt_zp
B66A  A9 2C    LDA #$2C
B66C  20 3E B5 JSR putchar
B66F  A9 58    LDA #$58
B671  4C 3E B5 JMP putchar

fmt_zpy:
B674  20 58 B6 JSR fmt_zp
B677  A9 2C    LDA #$2C
B679  20 3E B5 JSR putchar
B67C  A9 59    LDA #$59
B67E  4C 3E B5 JMP putchar

fmt_abs:
B681  20 01 B5 JSR print_space

fmt_abs2:
B684  A9 24    LDA #$24
B686  20 3E B5 JSR putchar
B689  A0 01    LDY #$01
B68B  B1 CA    LDA ($CA),Y
B68D  AA       TAX
B68E  C8       INY
B68F  B1 CA    LDA ($CA),Y
B691  4C E8 B4 JMP print_hex16

fmt_absx:
B694  20 81 B6 JSR fmt_abs
B697  A9 2C    LDA #$2C
B699  20 3E B5 JSR putchar
B69C  A9 58    LDA #$58
B69E  4C 3E B5 JMP putchar

fmt_absy:
B6A1  20 81 B6 JSR fmt_abs
B6A4  A9 2C    LDA #$2C
B6A6  20 3E B5 JSR putchar
B6A9  A9 59    LDA #$59
B6AB  4C 3E B5 JMP putchar

fmt_ind:
B6AE  A9 28    LDA #$28
B6B0  20 3E B5 JSR putchar
B6B3  20 84 B6 JSR fmt_abs2
B6B6  A9 29    LDA #$29
B6B8  4C 3E B5 JMP putchar

fmt_indx:
B6BB  A9 28    LDA #$28
B6BD  20 3E B5 JSR putchar
B6C0  20 5B B6 JSR fmt_zp2
B6C3  A9 2C    LDA #$2C
B6C5  20 3E B5 JSR putchar
B6C8  A9 58    LDA #$58
B6CA  20 3E B5 JSR putchar
B6CD  A9 29    LDA #$29
B6CF  4C 3E B5 JMP putchar

fmt_indy:
B6D2  A9 28    LDA #$28
B6D4  20 3E B5 JSR putchar
B6D7  20 5B B6 JSR fmt_zp2
B6DA  A9 29    LDA #$29
B6DC  20 3E B5 JSR putchar
B6DF  A9 2C    LDA #$2C
B6E1  20 3E B5 JSR putchar
B6E4  A9 59    LDA #$59
B6E6  4C 3E B5 JMP putchar

fmt_zpind:
B6E9  A9 28    LDA #$28
B6EB  20 3E B5 JSR putchar
B6EE  20 5B B6 JSR fmt_zp2
B6F1  A9 29    LDA #$29
B6F3  4C 3E B5 JMP putchar

fmt_rel:
B6F6  A0 01    LDY #$01
B6F8  B1 CA    LDA ($CA),Y
B6FA  85 D0    STA $D0
B6FC  A5 CA    LDA $CA
B6FE  18       CLC
B6FF  69 02    ADC #$02
B701  85 CE    STA $CE
B703  A5 CB    LDA $CB
B705  69 00    ADC #$00
B707  85 CF    STA $CF
B709  A5 D0    LDA $D0
B70B  30 0B    BMI rel_neg
B70D  18       CLC
B70E  65 CE    ADC $CE
B710  AA       TAX
B711  A5 CF    LDA $CF
B713  69 00    ADC #$00
B715  4C 20 B7 JMP rel_print

rel_neg:
B718  18       CLC
B719  65 CE    ADC $CE
B71B  AA       TAX
B71C  A5 CF    LDA $CF
B71E  69 FF    ADC #$FF

rel_print:
B720  48       PHA
B721  20 01 B5 JSR print_space
B724  A9 24    LDA #$24
B726  20 3E B5 JSR putchar
B729  68       PLA
B72A  4C E8 B4 JMP print_hex16

fmt_zprel:
B72D  20 5B B6 JSR fmt_zp2
B730  A9 2C    LDA #$2C
B732  20 3E B5 JSR putchar
B735  A0 02    LDY #$02
B737  B1 CA    LDA ($CA),Y
B739  85 D0    STA $D0
B73B  A5 CA    LDA $CA
B73D  18       CLC
B73E  69 03    ADC #$03
B740  85 CE    STA $CE
B742  A5 CB    LDA $CB
B744  69 00    ADC #$00
B746  85 CF    STA $CF
B748  A5 D0    LDA $D0
B74A  30 0B    BMI zrel_neg
B74C  18       CLC
B74D  65 CE    ADC $CE
B74F  AA       TAX
B750  A5 CF    LDA $CF
B752  69 00    ADC #$00
B754  4C 5F B7 JMP zrel_print

zrel_neg:
B757  18       CLC
B758  65 CE    ADC $CE
B75A  AA       TAX
B75B  A5 CF    LDA $CF
B75D  69 FF    ADC #$FF

zrel_print:
B75F  48       PHA
B760  A9 24    LDA #$24
B762  20 3E B5 JSR putchar
B765  68       PLA
B766  4C E8 B4 JMP print_hex16

fmt_aix:
B769  A9 28    LDA #$28
B76B  20 3E B5 JSR putchar
B76E  20 84 B6 JSR fmt_abs2
B771  A9 2C    LDA #$2C
B773  20 3E B5 JSR putchar
B776  A9 58    LDA #$58
B778  20 3E B5 JSR putchar
B77B  A9 29    LDA #$29
B77D  4C 3E B5 JMP putchar

fmt_ill:
B780  20 01 B5 JSR print_space
B783  A9 24    LDA #$24
B785  20 3E B5 JSR putchar
B788  A0 00    LDY #$00
B78A  B1 CA    LDA ($CA),Y
B78C  4C CD B4 JMP print_hex8

operand_vecs:
B78F  3E B6 3F ROL $3FB6,X
B792  B6 47    LDX $47,Y
B794  B6 58    LDX $58,Y
B796  B6 67    LDX $67,Y
B798  B6 74    LDX $74,Y
B79A  B6 81    LDX $81,Y
B79C  B6 94    LDX $94,Y
B79E  B6 A1    LDX $A1,Y
B7A0  B6 AE    LDX $AE,Y
B7A2  B6 BB    LDX $BB,Y
B7A4  B6 D2    LDX $D2,Y
B7A6  B6 E9    LDX $E9,Y
B7A8  B6 F6    LDX $F6,Y
B7AA  B6 2D    LDX $2D,Y
B7AC  B7 69    SMB3 $69
B7AE  B7 80    SMB3 $80
B7B0  B7 20    SMB3 $20
B7B2  19 B4 20 ORA $20B4,Y
B7B5  AC B2 B0 LDY $B0B2
B7B8  03       .byte $03
B7B9  4C 27 B2 JMP cmd_error

ca_have_first:
B7BC  A0 00    LDY #$00
B7BE  B1 C2    LDA ($C2),Y
B7C0  20 2F B4 JSR toupper
B7C3  C9 41    CMP #$41
B7C5  90 04    BCC ca_with_addr
B7C7  C9 5B    CMP #$5B
B7C9  90 0E    BCC ca_default_addr

ca_with_addr:
B7CB  20 FD B2 JSR parse_word
B7CE  20 43 B4 JSR copy_T0_R0
B7D1  20 AC B2 JSR next_token
B7D4  B0 06    BCS ca_mnemonic
B7D6  4C 27 B2 JMP cmd_error

ca_default_addr:
B7D9  20 67 B4 JSR copy_MEM_R0

ca_mnemonic:
B7DC  20 5E B4 JSR copy_R0_R2
B7DF  20 F8 B7 JSR parse_mnemonic
B7E2  20 5D B8 JSR parse_asm_operand
B7E5  20 AC B2 JSR next_token
B7E8  90 03    BCC ca_find
B7EA  4C 27 B2 JMP cmd_error

ca_find:
B7ED  20 83 B9 JSR find_opcode
B7F0  B0 03    BCS ca_emit
B7F2  4C 27 B2 JMP cmd_error

ca_emit:
B7F5  4C 06 BA JMP emit_instruction

parse_mnemonic:
B7F8  20 20 B4 JSR skip_spaces
B7FB  A5 C2    LDA $C2
B7FD  85 C8    STA $C8
B7FF  A5 C3    LDA $C3
B801  85 C9    STA $C9
B803  64 D9    STZ $D9

pm_loop:
B805  A0 00    LDY #$00
B807  B1 C2    LDA ($C2),Y
B809  F0 0C    BEQ pm_done
B80B  C9 20    CMP #$20
B80D  F0 08    BEQ pm_done
B80F  E6 D9    INC $D9
B811  20 19 B4 JSR advance_lineptr
B814  4C 05 B8 JMP pm_loop

pm_done:
B817  A5 D9    LDA $D9
B819  D0 03    BNE pm_ok
B81B  4C 27 B2 JMP cmd_error

pm_ok:
B81E  60       RTS

compare_mnemonic:
B81F  A0 00    LDY #$00

cm_loop:
B821  C4 D9    CPY $D9
B823  F0 13    BEQ cm_end_input
B825  B1 C8    LDA ($C8),Y
B827  20 2F B4 JSR toupper
B82A  85 D6    STA $D6
B82C  B1 D0    LDA ($D0),Y
B82E  F0 0C    BEQ cm_no
B830  C5 D6    CMP $D6
B832  D0 08    BNE cm_no
B834  C8       INY
B835  4C 21 B8 JMP cm_loop

cm_end_input:
B838  B1 D0    LDA ($D0),Y
B83A  F0 02    BEQ cm_yes

cm_no:
B83C  18       CLC
B83D  60       RTS

cm_yes:
B83E  38       SEC
B83F  60       RTS

get_mnemonic_id_x:
B840  BD FD BD LDA mnemonic_id_table,X
B843  60       RTS

get_mnemonic_ptr_id:
B844  DA       PHX
B845  85 D6    STA $D6
B847  0A       ASL
B848  AA       TAX
B849  BD 37 BD LDA mnemonic_text_ptrs,X
B84C  85 D0    STA $D0
B84E  E8       INX
B84F  BD 37 BD LDA mnemonic_text_ptrs,X
B852  85 D1    STA $D1
B854  FA       PLX
B855  60       RTS

get_oplen_from_mode:
B856  DA       PHX
B857  AA       TAX
B858  BD 26 BD LDA mode_len_table,X
B85B  FA       PLX
B85C  60       RTS

parse_asm_operand:
B85D  20 AC B2 JSR next_token
B860  B0 05    BCS pa_have_operand
B862  A9 00    LDA #$00
B864  85 D7    STA $D7
B866  60       RTS

pa_have_operand:
B867  A0 00    LDY #$00
B869  B1 C2    LDA ($C2),Y
B86B  C9 23    CMP #$23
B86D  F0 2B    BEQ pa_imm
B86F  C9 28    CMP #$28
B871  F0 32    BEQ pa_paren
B873  20 2F B4 JSR toupper
B876  C9 41    CMP #$41
B878  F0 03    BEQ pa_have_a
B87A  4C 23 B9 JMP pa_value

pa_have_a:
B87D  A0 01    LDY #$01
B87F  B1 C2    LDA ($C2),Y
B881  F0 07    BEQ pa_try_acc
B883  C9 20    CMP #$20
B885  F0 03    BEQ pa_try_acc
B887  4C 23 B9 JMP pa_value

pa_try_acc:
B88A  20 19 B4 JSR advance_lineptr
B88D  20 AC B2 JSR next_token
B890  90 03    BCC pa_acc
B892  4C 27 B2 JMP cmd_error

pa_acc:
B895  A9 01    LDA #$01
B897  85 D7    STA $D7
B899  60       RTS

pa_imm:
B89A  20 19 B4 JSR advance_lineptr
B89D  20 F0 B2 JSR parse_byte
B8A0  A9 02    LDA #$02
B8A2  85 D7    STA $D7
B8A4  60       RTS

pa_paren:
B8A5  20 19 B4 JSR advance_lineptr
B8A8  20 FD B2 JSR parse_word
B8AB  A0 00    LDY #$00
B8AD  B1 C2    LDA ($C2),Y
B8AF  C9 2C    CMP #$2C
B8B1  F0 07    BEQ pa_paren_comma
B8B3  C9 29    CMP #$29
B8B5  F0 33    BEQ pa_paren_close
B8B7  4C 27 B2 JMP cmd_error

pa_paren_comma:
B8BA  20 19 B4 JSR advance_lineptr
B8BD  A0 00    LDY #$00
B8BF  B1 C2    LDA ($C2),Y
B8C1  20 2F B4 JSR toupper
B8C4  C9 58    CMP #$58
B8C6  F0 03    BEQ pa_paren_x
B8C8  4C 27 B2 JMP cmd_error

pa_paren_x:
B8CB  20 19 B4 JSR advance_lineptr
B8CE  A0 00    LDY #$00
B8D0  B1 C2    LDA ($C2),Y
B8D2  C9 29    CMP #$29
B8D4  F0 03    BEQ pa_paren_x_close
B8D6  4C 27 B2 JMP cmd_error

pa_paren_x_close:
B8D9  20 19 B4 JSR advance_lineptr
B8DC  A5 CF    LDA $CF
B8DE  F0 05    BEQ pa_indx
B8E0  A9 0F    LDA #$0F
B8E2  85 D7    STA $D7
B8E4  60       RTS

pa_indx:
B8E5  A9 0A    LDA #$0A
B8E7  85 D7    STA $D7
B8E9  60       RTS

pa_paren_close:
B8EA  20 19 B4 JSR advance_lineptr
B8ED  A0 00    LDY #$00
B8EF  B1 C2    LDA ($C2),Y
B8F1  C9 2C    CMP #$2C
B8F3  F0 0E    BEQ pa_paren_close_comma
B8F5  A5 CF    LDA $CF
B8F7  F0 05    BEQ pa_zpind
B8F9  A9 09    LDA #$09
B8FB  85 D7    STA $D7
B8FD  60       RTS

pa_zpind:
B8FE  A9 0C    LDA #$0C
B900  85 D7    STA $D7
B902  60       RTS

pa_paren_close_comma:
B903  20 19 B4 JSR advance_lineptr
B906  A0 00    LDY #$00
B908  B1 C2    LDA ($C2),Y
B90A  20 2F B4 JSR toupper
B90D  C9 59    CMP #$59
B90F  F0 03    BEQ pa_paren_y
B911  4C 27 B2 JMP cmd_error

pa_paren_y:
B914  20 19 B4 JSR advance_lineptr
B917  A5 CF    LDA $CF
B919  F0 03    BEQ pa_indy
B91B  4C 27 B2 JMP cmd_error

pa_indy:
B91E  A9 0B    LDA #$0B
B920  85 D7    STA $D7
B922  60       RTS

pa_value:
B923  20 FD B2 JSR parse_word
B926  A0 00    LDY #$00
B928  B1 C2    LDA ($C2),Y
B92A  C9 2C    CMP #$2C
B92C  F0 0E    BEQ pa_value_comma
B92E  A5 CF    LDA $CF
B930  F0 05    BEQ pa_zp
B932  A9 06    LDA #$06
B934  85 D7    STA $D7
B936  60       RTS

pa_zp:
B937  A9 03    LDA #$03
B939  85 D7    STA $D7
B93B  60       RTS

pa_value_comma:
B93C  20 19 B4 JSR advance_lineptr
B93F  A0 00    LDY #$00
B941  B1 C2    LDA ($C2),Y
B943  20 2F B4 JSR toupper
B946  C9 58    CMP #$58
B948  F0 17    BEQ pa_index_x
B94A  C9 59    CMP #$59
B94C  F0 24    BEQ pa_index_y
B94E  A5 CF    LDA $CF
B950  F0 03    BEQ pa_zprel
B952  4C 27 B2 JMP cmd_error

pa_zprel:
B955  A5 CE    LDA $CE
B957  85 D0    STA $D0
B959  20 FD B2 JSR parse_word
B95C  A9 0E    LDA #$0E
B95E  85 D7    STA $D7
B960  60       RTS

pa_index_x:
B961  20 19 B4 JSR advance_lineptr
B964  A5 CF    LDA $CF
B966  F0 05    BEQ pa_zpx
B968  A9 07    LDA #$07
B96A  85 D7    STA $D7
B96C  60       RTS

pa_zpx:
B96D  A9 04    LDA #$04
B96F  85 D7    STA $D7
B971  60       RTS

pa_index_y:
B972  20 19 B4 JSR advance_lineptr
B975  A5 CF    LDA $CF
B977  F0 05    BEQ pa_zpy
B979  A9 08    LDA #$08
B97B  85 D7    STA $D7
B97D  60       RTS

pa_zpy:
B97E  A9 05    LDA #$05
B980  85 D7    STA $D7
B982  60       RTS

find_opcode:
B983  A2 00    LDX #$00

fo_loop:
B985  BD 26 BC LDA mode_table,X
B988  C5 D7    CMP $D7
B98A  F0 11    BEQ fo_check_mnemonic_direct
B98C  C9 0D    CMP #$0D
B98E  D0 35    BNE fo_next
B990  A5 D7    LDA $D7
B992  C9 03    CMP #$03
B994  F0 15    BEQ fo_check_mnemonic_rel
B996  C9 06    CMP #$06
B998  F0 11    BEQ fo_check_mnemonic_rel
B99A  4C C5 B9 JMP fo_next

fo_check_mnemonic_direct:
B99D  20 40 B8 JSR get_mnemonic_id_x
B9A0  20 44 B8 JSR get_mnemonic_ptr_id
B9A3  20 1F B8 JSR compare_mnemonic
B9A6  B0 19    BCS fo_found_direct
B9A8  4C C5 B9 JMP fo_next

fo_check_mnemonic_rel:
B9AB  20 40 B8 JSR get_mnemonic_id_x
B9AE  20 44 B8 JSR get_mnemonic_ptr_id
B9B1  20 1F B8 JSR compare_mnemonic
B9B4  B0 03    BCS fo_found_rel
B9B6  4C C5 B9 JMP fo_next

fo_found_rel:
B9B9  A9 0D    LDA #$0D
B9BB  85 D7    STA $D7
B9BD  86 D8    STX $D8
B9BF  38       SEC
B9C0  60       RTS

fo_found_direct:
B9C1  86 D8    STX $D8
B9C3  38       SEC
B9C4  60       RTS

fo_next:
B9C5  E8       INX
B9C6  D0 BD    BNE fo_loop
B9C8  18       CLC
B9C9  60       RTS

compute_rel_offset:
B9CA  85 D4    STA $D4
B9CC  A5 C6    LDA $C6
B9CE  18       CLC
B9CF  65 D4    ADC $D4
B9D1  85 CC    STA $CC
B9D3  A5 C7    LDA $C7
B9D5  69 00    ADC #$00
B9D7  85 CD    STA $CD
B9D9  38       SEC
B9DA  A5 CE    LDA $CE
B9DC  E5 CC    SBC $CC
B9DE  85 D0    STA $D0
B9E0  A5 CF    LDA $CF
B9E2  E5 CD    SBC $CD
B9E4  85 D1    STA $D1
B9E6  A5 D1    LDA $D1
B9E8  F0 07    BEQ cro_pos
B9EA  C9 FF    CMP #$FF
B9EC  F0 0C    BEQ cro_neg
B9EE  4C 27 B2 JMP cmd_error

cro_pos:
B9F1  A5 D0    LDA $D0
B9F3  C9 80    CMP #$80
B9F5  90 0C    BCC cro_ok
B9F7  4C 27 B2 JMP cmd_error

cro_neg:
B9FA  A5 D0    LDA $D0
B9FC  C9 80    CMP #$80
B9FE  B0 03    BCS cro_ok
BA00  4C 27 B2 JMP cmd_error

cro_ok:
BA03  A5 D0    LDA $D0
BA05  60       RTS

emit_instruction:
BA06  A5 D7    LDA $D7
BA08  20 56 B8 JSR get_oplen_from_mode
BA0B  85 CD    STA $CD
BA0D  A5 D7    LDA $D7
BA0F  C9 0D    CMP #$0D
BA11  F0 07    BEQ ei_prep_rel
BA13  C9 0E    CMP #$0E
BA15  F0 0D    BEQ ei_prep_zprel
BA17  4C 2E BA JMP ei_store

ei_prep_rel:
BA1A  A9 02    LDA #$02
BA1C  20 CA B9 JSR compute_rel_offset
BA1F  85 D1    STA $D1
BA21  4C 2E BA JMP ei_store

ei_prep_zprel:
BA24  A9 03    LDA #$03
BA26  20 CA B9 JSR compute_rel_offset
BA29  85 D1    STA $D1
BA2B  4C 2E BA JMP ei_store

ei_store:
BA2E  A0 00    LDY #$00
BA30  A5 D8    LDA $D8
BA32  91 C6    STA ($C6),Y
BA34  A5 CD    LDA $CD
BA36  C9 01    CMP #$01
BA38  F0 32    BEQ ei_finish
BA3A  A5 D7    LDA $D7
BA3C  C9 0D    CMP #$0D
BA3E  F0 18    BEQ ei_rel
BA40  C9 0E    CMP #$0E
BA42  F0 1D    BEQ ei_zprel
BA44  A0 01    LDY #$01
BA46  A5 CE    LDA $CE
BA48  91 C6    STA ($C6),Y
BA4A  A5 CD    LDA $CD
BA4C  C9 02    CMP #$02
BA4E  F0 1C    BEQ ei_finish
BA50  C8       INY
BA51  A5 CF    LDA $CF
BA53  91 C6    STA ($C6),Y
BA55  4C 6C BA JMP ei_finish

ei_rel:
BA58  A0 01    LDY #$01
BA5A  A5 D1    LDA $D1
BA5C  91 C6    STA ($C6),Y
BA5E  4C 6C BA JMP ei_finish

ei_zprel:
BA61  A0 01    LDY #$01
BA63  A5 D0    LDA $D0
BA65  91 C6    STA ($C6),Y
BA67  C8       INY
BA68  A5 D1    LDA $D1
BA6A  91 C6    STA ($C6),Y

ei_finish:
BA6C  A5 CD    LDA $CD
BA6E  20 87 B4 JSR add_R0_A
BA71  A5 C6    LDA $C6
BA73  85 D2    STA $D2
BA75  A5 C7    LDA $C7
BA77  85 D3    STA $D3
BA79  60       RTS

mn_ILL:
BA7A  2E 44 42 ROL $4244
BA7D  00       BRK

mn_ADC:
BA7E  41 44    EOR ($44,X)
BA80  43       .byte $43
BA81  00       BRK

mn_AND:
BA82  41 4E    EOR ($4E,X)
BA84  44       .byte $44
BA85  00       BRK

mn_ASL:
BA86  41 53    EOR ($53,X)
BA88  4C 00 42 JMP L4200
BA8B  43       .byte $43
BA8C  43       .byte $43
BA8D  00       BRK

mn_BCS:
BA8E  42       .byte $42
BA8F  43       .byte $43
BA90  53       .byte $53
BA91  00       BRK

mn_BEQ:
BA92  42       .byte $42
BA93  45 51    EOR $51
BA95  00       BRK

mn_BIT:
BA96  42       .byte $42
BA97  49 54    EOR #$54
BA99  00       BRK

mn_BMI:
BA9A  42       .byte $42
BA9B  4D 49 00 EOR $0049

mn_BNE:
BA9E  42       .byte $42
BA9F  4E 45 00 LSR $0045

mn_BPL:
BAA2  42       .byte $42
BAA3  50 4C    BVC LBAF1
BAA5  00       BRK

mn_BRA:
BAA6  42       .byte $42
BAA7  52 41    EOR ($41)
BAA9  00       BRK

mn_BRK:
BAAA  42       .byte $42
BAAB  52 4B    EOR ($4B)
BAAD  00       BRK

mn_BVC:
BAAE  42       .byte $42
BAAF  56 43    LSR $43,X
BAB1  00       BRK

mn_BVS:
BAB2  42       .byte $42
BAB3  56 53    LSR $53,X
BAB5  00       BRK

mn_CLC:
BAB6  43       .byte $43
BAB7  4C 43 00 JMP L0043

mn_CLD:
BABA  43       .byte $43
BABB  4C 44 00 JMP L0044

mn_CLI:
BABE  43       .byte $43
BABF  4C 49 00 JMP L0049

mn_CLV:
BAC2  43       .byte $43
BAC3  4C 56 00 JMP L0056

mn_CMP:
BAC6  43       .byte $43
BAC7  4D 50 00 EOR $0050

mn_CPX:
BACA  43       .byte $43
BACB  50 58    BVC LBB25
BACD  00       BRK

mn_CPY:
BACE  43       .byte $43
BACF  50 59    BVC mn_PLY
BAD1  00       BRK

mn_DEC:
BAD2  44       .byte $44
BAD3  45 43    EOR $43
BAD5  00       BRK

mn_DEX:
BAD6  44       .byte $44
BAD7  45 58    EOR $58
BAD9  00       BRK

mn_DEY:
BADA  44       .byte $44
BADB  45 59    EOR $59
BADD  00       BRK

mn_EOR:
BADE  45 4F    EOR $4F
BAE0  52 00    EOR ($00)

mn_INC:
BAE2  49 4E    EOR #$4E
BAE4  43       .byte $43
BAE5  00       BRK

mn_INX:
BAE6  49 4E    EOR #$4E
BAE8  58       CLI
BAE9  00       BRK

mn_INY:
BAEA  49 4E    EOR #$4E
BAEC  59 00 4A EOR $4A00,Y
BAEF  4D 50 00 EOR $0050

mn_JSR:
BAF2  4A       LSR
BAF3  53       .byte $53
BAF4  52 00    EOR ($00)

mn_LDA:
BAF6  4C 44 41 JMP L4144
BAF9  00       BRK

mn_LDX:
BAFA  4C 44 58 JMP L5844
BAFD  00       BRK

mn_LDY:
BAFE  4C 44 59 JMP L5944
BB01  00       BRK

mn_LSR:
BB02  4C 53 52 JMP L5253
BB05  00       BRK

mn_NOP:
BB06  4E 4F 50 LSR $504F
BB09  00       BRK

mn_ORA:
BB0A  4F 52 41 BBR4 $52,mn_STA
BB0D  00       BRK

mn_PHA:
BB0E  50 48    BVC LBB58
BB10  41 00    EOR ($00,X)

mn_PHP:
BB12  50 48    BVC LBB5C
BB14  50 00    BVC mn_PHX

mn_PHX:
BB16  50 48    BVC LBB60
BB18  58       CLI
BB19  00       BRK

mn_PHY:
BB1A  50 48    BVC LBB64
BB1C  59 00 50 EOR $5000,Y
BB1F  4C 41 00 JMP L0041

mn_PLP:
BB22  50 4C    BVC LBB70
BB24  50 00    BVC mn_PLX

mn_PLX:
BB26  50 4C    BVC LBB74
BB28  58       CLI
BB29  00       BRK

mn_PLY:
BB2A  50 4C    BVC LBB78
BB2C  59 00 52 EOR $5200,Y
BB2F  4F 4C 00 BBR4 $4C,mn_ROR

mn_ROR:
BB32  52 4F    EOR ($4F)
BB34  52 00    EOR ($00)

mn_RTI:
BB36  52 54    EOR ($54)
BB38  49 00    EOR #$00

mn_RTS:
BB3A  52 54    EOR ($54)
BB3C  53       .byte $53
BB3D  00       BRK

mn_SBC:
BB3E  53       .byte $53
BB3F  42       .byte $42
BB40  43       .byte $43
BB41  00       BRK

mn_SEC:
BB42  53       .byte $53
BB43  45 43    EOR $43
BB45  00       BRK

mn_SED:
BB46  53       .byte $53
BB47  45 44    EOR $44
BB49  00       BRK

mn_SEI:
BB4A  53       .byte $53
BB4B  45 49    EOR $49
BB4D  00       BRK

mn_STA:
BB4E  53       .byte $53
BB4F  54       .byte $54
BB50  41 00    EOR ($00,X)

mn_STP:
BB52  53       .byte $53
BB53  54       .byte $54
BB54  50 00    BVC mn_STX

mn_STX:
BB56  53       .byte $53
BB57  54       .byte $54

LBB58:
BB58  58       CLI
BB59  00       BRK

mn_STY:
BB5A  53       .byte $53
BB5B  54       .byte $54

LBB5C:
BB5C  59 00 53 EOR $5300,Y
BB5F  54       .byte $54

LBB60:
BB60  5A       PHY
BB61  00       BRK

mn_TAX:
BB62  54       .byte $54
BB63  41 58    EOR ($58,X)
BB65  00       BRK

mn_TAY:
BB66  54       .byte $54
BB67  41 59    EOR ($59,X)
BB69  00       BRK

mn_TRB:
BB6A  54       .byte $54
BB6B  52 42    EOR ($42)
BB6D  00       BRK

mn_TSB:
BB6E  54       .byte $54
BB6F  53       .byte $53

LBB70:
BB70  42       .byte $42
BB71  00       BRK

mn_TSX:
BB72  54       .byte $54
BB73  53       .byte $53

LBB74:
BB74  58       CLI
BB75  00       BRK

mn_TXA:
BB76  54       .byte $54
BB77  58       CLI

LBB78:
BB78  41 00    EOR ($00,X)

mn_TXS:
BB7A  54       .byte $54
BB7B  58       CLI
BB7C  53       .byte $53
BB7D  00       BRK

mn_TYA:
BB7E  54       .byte $54
BB7F  59 41 00 EOR $0041,Y

mn_WAI:
BB82  57 41    RMB5 $41
BB84  49 00    EOR #$00

mn_RMB0:
BB86  52 4D    EOR ($4D)
BB88  42       .byte $42
BB89  30 00    BMI mn_RMB1

mn_RMB1:
BB8B  52 4D    EOR ($4D)
BB8D  42       .byte $42
BB8E  31 00    AND ($00),Y

mn_RMB2:
BB90  52 4D    EOR ($4D)
BB92  42       .byte $42
BB93  32 00    AND ($00)

mn_RMB3:
BB95  52 4D    EOR ($4D)
BB97  42       .byte $42
BB98  33       .byte $33
BB99  00       BRK

mn_RMB4:
BB9A  52 4D    EOR ($4D)
BB9C  42       .byte $42
BB9D  34 00    BIT $00,X

mn_RMB5:
BB9F  52 4D    EOR ($4D)
BBA1  42       .byte $42
BBA2  35 00    AND $00,X

mn_RMB6:
BBA4  52 4D    EOR ($4D)
BBA6  42       .byte $42
BBA7  36 00    ROL $00,X

mn_RMB7:
BBA9  52 4D    EOR ($4D)
BBAB  42       .byte $42
BBAC  37 00    RMB3 $00

mn_SMB0:
BBAE  53       .byte $53
BBAF  4D 42 30 EOR $3042
BBB2  00       BRK

mn_SMB1:
BBB3  53       .byte $53
BBB4  4D 42 31 EOR $3142
BBB7  00       BRK

mn_SMB2:
BBB8  53       .byte $53
BBB9  4D 42 32 EOR $3242
BBBC  00       BRK

mn_SMB3:
BBBD  53       .byte $53
BBBE  4D 42 33 EOR $3342
BBC1  00       BRK

mn_SMB4:
BBC2  53       .byte $53
BBC3  4D 42 34 EOR $3442
BBC6  00       BRK

mn_SMB5:
BBC7  53       .byte $53
BBC8  4D 42 35 EOR $3542
BBCB  00       BRK

mn_SMB6:
BBCC  53       .byte $53
BBCD  4D 42 36 EOR $3642
BBD0  00       BRK

mn_SMB7:
BBD1  53       .byte $53
BBD2  4D 42 37 EOR $3742
BBD5  00       BRK

mn_BBR0:
BBD6  42       .byte $42
BBD7  42       .byte $42
BBD8  52 30    EOR ($30)
BBDA  00       BRK

mn_BBR1:
BBDB  42       .byte $42
BBDC  42       .byte $42
BBDD  52 31    EOR ($31)
BBDF  00       BRK

mn_BBR2:
BBE0  42       .byte $42
BBE1  42       .byte $42
BBE2  52 32    EOR ($32)
BBE4  00       BRK

mn_BBR3:
BBE5  42       .byte $42
BBE6  42       .byte $42
BBE7  52 33    EOR ($33)
BBE9  00       BRK

mn_BBR4:
BBEA  42       .byte $42
BBEB  42       .byte $42
BBEC  52 34    EOR ($34)
BBEE  00       BRK

mn_BBR5:
BBEF  42       .byte $42
BBF0  42       .byte $42
BBF1  52 35    EOR ($35)
BBF3  00       BRK

mn_BBR6:
BBF4  42       .byte $42
BBF5  42       .byte $42
BBF6  52 36    EOR ($36)
BBF8  00       BRK

mn_BBR7:
BBF9  42       .byte $42
BBFA  42       .byte $42
BBFB  52 37    EOR ($37)
BBFD  00       BRK

mn_BBS0:
BBFE  42       .byte $42
BBFF  42       .byte $42
BC00  53       .byte $53
BC01  30 00    BMI mn_BBS1

mn_BBS1:
BC03  42       .byte $42
BC04  42       .byte $42
BC05  53       .byte $53
BC06  31 00    AND ($00),Y

mn_BBS2:
BC08  42       .byte $42
BC09  42       .byte $42
BC0A  53       .byte $53
BC0B  32 00    AND ($00)

mn_BBS3:
BC0D  42       .byte $42
BC0E  42       .byte $42
BC0F  53       .byte $53
BC10  33       .byte $33
BC11  00       BRK

mn_BBS4:
BC12  42       .byte $42
BC13  42       .byte $42
BC14  53       .byte $53
BC15  34 00    BIT $00,X

mn_BBS5:
BC17  42       .byte $42
BC18  42       .byte $42
BC19  53       .byte $53
BC1A  35 00    AND $00,X

mn_BBS6:
BC1C  42       .byte $42
BC1D  42       .byte $42
BC1E  53       .byte $53
BC1F  36 00    ROL $00,X

mn_BBS7:
BC21  42       .byte $42
BC22  42       .byte $42
BC23  53       .byte $53
BC24  37 00    RMB3 $00

mode_table:
BC26  00       BRK
BC27  0A       ASL
BC28  10 10    BPL LBC3A
BC2A  03       .byte $03
BC2B  03       .byte $03
BC2C  03       .byte $03
BC2D  03       .byte $03
BC2E  00       BRK
BC2F  02       .byte $02
BC30  01 10    ORA ($10,X)
BC32  06 06    ASL $06
BC34  06 0E    ASL $0E
BC36  0D 0B 0C ORA $0C0B
BC39  10 03    BPL LBC3E
BC3B  04 04    TSB $04
BC3D  03       .byte $03

LBC3E:
BC3E  00       BRK
BC3F  08       PHP
BC40  01 10    ORA ($10,X)
BC42  06 07    ASL $07
BC44  07 0E    RMB0 $0E
BC46  06 0A    ASL $0A
BC48  10 10    BPL LBC5A
BC4A  03       .byte $03
BC4B  03       .byte $03
BC4C  03       .byte $03
BC4D  03       .byte $03
BC4E  00       BRK
BC4F  02       .byte $02
BC50  01 10    ORA ($10,X)
BC52  06 06    ASL $06
BC54  06 0E    ASL $0E
BC56  0D 0B 0C ORA $0C0B
BC59  10 04    BPL LBC5F
BC5B  04 04    TSB $04
BC5D  03       .byte $03
BC5E  00       BRK

LBC5F:
BC5F  08       PHP
BC60  01 10    ORA ($10,X)
BC62  07 07    RMB0 $07
BC64  07 0E    RMB0 $0E
BC66  00       BRK
BC67  0A       ASL
BC68  10 10    BPL LBC7A
BC6A  10 03    BPL LBC6F
BC6C  03       .byte $03
BC6D  03       .byte $03
BC6E  00       BRK

LBC6F:
BC6F  02       .byte $02
BC70  01 10    ORA ($10,X)
BC72  06 06    ASL $06
BC74  06 0E    ASL $0E
BC76  0D 0B 0C ORA $0C0B
BC79  10 10    BPL LBC8B
BC7B  04 04    TSB $04
BC7D  03       .byte $03
BC7E  00       BRK
BC7F  08       PHP
BC80  00       BRK
BC81  10 10    BPL LBC93
BC83  07 07    RMB0 $07
BC85  0E 00 0A ASL $0A00
BC88  10 10    BPL LBC9A
BC8A  03       .byte $03

LBC8B:
BC8B  03       .byte $03
BC8C  03       .byte $03
BC8D  03       .byte $03
BC8E  00       BRK
BC8F  02       .byte $02
BC90  01 10    ORA ($10,X)
BC92  09 06    ORA #$06
BC94  06 0E    ASL $0E
BC96  0D 0B 0C ORA $0C0B
BC99  10 04    BPL LBC9F
BC9B  04 04    TSB $04
BC9D  03       .byte $03
BC9E  00       BRK

LBC9F:
BC9F  08       PHP
BCA0  00       BRK
BCA1  10 0F    BPL LBCB2
BCA3  07 07    RMB0 $07
BCA5  0E 0D 0A ASL $0A0D
BCA8  10 10    BPL LBCBA
BCAA  03       .byte $03
BCAB  03       .byte $03
BCAC  03       .byte $03
BCAD  03       .byte $03
BCAE  00       BRK
BCAF  02       .byte $02
BCB0  00       BRK
BCB1  10 06    BPL LBCB9
BCB3  06 06    ASL $06
BCB5  0E 0D 0B ASL $0B0D
BCB8  0C 10 04 TSB $0410
BCBB  04 05    TSB $05
BCBD  03       .byte $03
BCBE  00       BRK
BCBF  08       PHP
BCC0  00       BRK
BCC1  10 06    BPL LBCC9
BCC3  07 07    RMB0 $07
BCC5  0E 02 0A ASL $0A02
BCC8  02       .byte $02

LBCC9:
BCC9  10 03    BPL LBCCE
BCCB  03       .byte $03
BCCC  03       .byte $03
BCCD  03       .byte $03

LBCCE:
BCCE  00       BRK
BCCF  02       .byte $02
BCD0  00       BRK
BCD1  10 06    BPL LBCD9
BCD3  06 06    ASL $06
BCD5  0E 0D 0B ASL $0B0D
BCD8  0C 10 04 TSB $0410
BCDB  04 05    TSB $05
BCDD  03       .byte $03
BCDE  00       BRK
BCDF  08       PHP
BCE0  00       BRK
BCE1  10 07    BPL LBCEA
BCE3  07 08    RMB0 $08
BCE5  0E 02 0A ASL $0A02
BCE8  10 10    BPL LBCFA

LBCEA:
BCEA  03       .byte $03
BCEB  03       .byte $03
BCEC  03       .byte $03
BCED  03       .byte $03
BCEE  00       BRK
BCEF  02       .byte $02
BCF0  00       BRK
BCF1  00       BRK
BCF2  06 06    ASL $06
BCF4  06 0E    ASL $0E
BCF6  0D 0B 0C ORA $0C0B
BCF9  10 10    BPL LBD0B
BCFB  04 04    TSB $04
BCFD  03       .byte $03
BCFE  00       BRK
BCFF  08       PHP
BD00  00       BRK
BD01  00       BRK
BD02  10 07    BPL LBD0B
BD04  07 0E    RMB0 $0E
BD06  02       .byte $02
BD07  0A       ASL
BD08  10 10    BPL LBD1A
BD0A  03       .byte $03

LBD0B:
BD0B  03       .byte $03
BD0C  03       .byte $03
BD0D  03       .byte $03
BD0E  00       BRK
BD0F  02       .byte $02
BD10  00       BRK
BD11  10 06    BPL LBD19
BD13  06 06    ASL $06
BD15  0E 0D 0B ASL $0B0D
BD18  0C 10 10 TSB $1010
BD1B  04 04    TSB $04
BD1D  03       .byte $03
BD1E  00       BRK
BD1F  08       PHP
BD20  00       BRK
BD21  10 10    BPL LBD33
BD23  07 07    RMB0 $07
BD25  0E 01 01 ASL $0101
BD28  02       .byte $02
BD29  02       .byte $02
BD2A  02       .byte $02
BD2B  02       .byte $02
BD2C  03       .byte $03
BD2D  03       .byte $03
BD2E  03       .byte $03
BD2F  03       .byte $03
BD30  02       .byte $02
BD31  02       .byte $02
BD32  02       .byte $02

LBD33:
BD33  02       .byte $02
BD34  03       .byte $03
BD35  03       .byte $03
BD36  01 7A    ORA ($7A,X)
BD38  BA       TSX
BD39  7E BA 82 ROR $82BA,X
BD3C  BA       TSX
BD3D  86 BA    STX $BA
BD3F  8A       TXA
BD40  BA       TSX
BD41  8E BA 92 STX $92BA
BD44  BA       TSX
BD45  96 BA    STX $BA,Y
BD47  9A       TXS
BD48  BA       TSX
BD49  9E BA A2 STZ $A2BA,X
BD4C  BA       TSX
BD4D  A6 BA    LDX $BA
BD4F  AA       TAX
BD50  BA       TSX
BD51  AE BA B2 LDX $B2BA
BD54  BA       TSX
BD55  B6 BA    LDX $BA,Y
BD57  BA       TSX
BD58  BA       TSX
BD59  BE BA C2 LDX $C2BA,Y
BD5C  BA       TSX
BD5D  C6 BA    DEC $BA
BD5F  CA       DEX
BD60  BA       TSX
BD61  CE BA D2 DEC $D2BA
BD64  BA       TSX
BD65  D6 BA    DEC $BA,X
BD67  DA       PHX
BD68  BA       TSX
BD69  DE BA E2 DEC $E2BA,X
BD6C  BA       TSX
BD6D  E6 BA    INC $BA
BD6F  EA       NOP
BD70  BA       TSX
BD71  EE BA F2 INC $F2BA
BD74  BA       TSX
BD75  F6 BA    INC $BA,X
BD77  FA       PLX
BD78  BA       TSX
BD79  FE BA 02 INC $02BA,X
BD7C  BB       .byte $BB
BD7D  06 BB    ASL $BB
BD7F  0A       ASL
BD80  BB       .byte $BB
BD81  0E BB 12 ASL $12BB
BD84  BB       .byte $BB
BD85  16 BB    ASL $BB,X
BD87  1A       INC
BD88  BB       .byte $BB
BD89  1E BB 22 ASL $22BB,X
BD8C  BB       .byte $BB
BD8D  26 BB    ROL $BB
BD8F  2A       ROL
BD90  BB       .byte $BB
BD91  2E BB 32 ROL $32BB
BD94  BB       .byte $BB
BD95  36 BB    ROL $BB,X
BD97  3A       DEC
BD98  BB       .byte $BB
BD99  3E BB 42 ROL $42BB,X
BD9C  BB       .byte $BB
BD9D  46 BB    LSR $BB
BD9F  4A       LSR
BDA0  BB       .byte $BB
BDA1  4E BB 52 LSR $52BB
BDA4  BB       .byte $BB
BDA5  56 BB    LSR $BB,X
BDA7  5A       PHY
BDA8  BB       .byte $BB
BDA9  5E BB 62 LSR $62BB,X
BDAC  BB       .byte $BB
BDAD  66 BB    ROR $BB
BDAF  6A       ROR
BDB0  BB       .byte $BB
BDB1  6E BB 72 ROR $72BB
BDB4  BB       .byte $BB
BDB5  76 BB    ROR $BB,X
BDB7  7A       PLY
BDB8  BB       .byte $BB
BDB9  7E BB 82 ROR $82BB,X
BDBC  BB       .byte $BB
BDBD  86 BB    STX $BB
BDBF  8B       .byte $8B
BDC0  BB       .byte $BB
BDC1  90 BB    BCC LBD7E
BDC3  95 BB    STA $BB,X
BDC5  9A       TXS
BDC6  BB       .byte $BB
BDC7  9F BB A4 BBS1 $BB,LBD6E
BDCA  BB       .byte $BB
BDCB  A9 BB    LDA #$BB
BDCD  AE BB B3 LDX $B3BB
BDD0  BB       .byte $BB
BDD1  B8       CLV
BDD2  BB       .byte $BB
BDD3  BD BB C2 LDA $C2BB,X
BDD6  BB       .byte $BB
BDD7  C7 BB    SMB4 $BB
BDD9  CC BB D1 CPY $D1BB
BDDC  BB       .byte $BB
BDDD  D6 BB    DEC $BB,X
BDDF  DB       STP
BDE0  BB       .byte $BB
BDE1  E0 BB    CPX #$BB
BDE3  E5 BB    SBC $BB
BDE5  EA       NOP
BDE6  BB       .byte $BB
BDE7  EF BB F4 BBS6 $BB,LBDDE
BDEA  BB       .byte $BB
BDEB  F9 BB FE SBC $FEBB,Y
BDEE  BB       .byte $BB
BDEF  03       .byte $03
BDF0  BC 08 BC LDY mn_BBS2,X
BDF3  0D BC 12 ORA $12BC
BDF6  BC 17 BC LDY mn_BBS5,X
BDF9  1C BC 21 TRB $21BC
BDFC  BC 0C 24 LDY $240C,X
BDFF  00       BRK
BE00  00       BRK
BE01  3D 24 03 AND $0324,X
BE04  43       .byte $43
BE05  26 24    ROL $24
BE07  03       .byte $03
BE08  00       BRK
BE09  3D 24 03 AND $0324,X
BE0C  53       .byte $53
BE0D  0A       ASL
BE0E  24 24    BIT $24
BE10  00       BRK
BE11  3C 24 03 BIT $0324,X
BE14  44       .byte $44
BE15  0F 24 1A BBR0 $24,LBE32
BE18  00       BRK
BE19  3C 24 03 BIT $0324,X
BE1C  54       .byte $54
BE1D  1E 02 00 ASL $0002,X
BE20  00       BRK
BE21  07 02    RMB0 $02
BE23  2D 45 2A AND $2A45
BE26  02       .byte $02
BE27  2D 00 07 AND $0700
BE2A  02       .byte $02
BE2B  2D 55 08 AND $0855
BE2E  02       .byte $02
BE2F  02       .byte $02
BE30  00       BRK
BE31  07 02    RMB0 $02
BE33  2D 46 32 AND $3246
BE36  02       .byte $02
BE37  16 00    ASL $00,X
BE39  07 02    RMB0 $02
BE3B  2D 56 2F AND $2F56
BE3E  19 00 00 ORA $0000,Y
BE41  00       BRK
BE42  19 22 47 ORA $4722,Y
BE45  25 19    AND $19
BE47  22       .byte $22
BE48  00       BRK
BE49  1D 19 22 ORA $2219,X
BE4C  57 0D    RMB5 $0D
BE4E  19 19 00 ORA $0019,Y
BE51  00       BRK
BE52  19 22 48 ORA $4822,Y
BE55  11 19    ORA ($19),Y
BE57  28       PLP
BE58  00       BRK
BE59  00       BRK
BE5A  19 22 58 ORA $5822,Y
BE5D  30 01    BMI LBE60
BE5F  00       BRK

LBE60:
BE60  00       BRK
BE61  39 01 2E AND $2E01,Y
BE64  49 29    EOR #$29
BE66  01 2E    ORA ($2E,X)
BE68  00       BRK
BE69  1D 01 2E ORA $2E01,X
BE6C  59 0E 01 EOR $010E,Y
BE6F  01 00    ORA ($00,X)
BE71  39 01 2E AND $2E01,Y
BE74  4A       LSR
BE75  34 01    BIT $01,X
BE77  2C 00 1D BIT $1D00
BE7A  01 2E    ORA ($2E,X)
BE7C  5A       PHY
BE7D  0B       .byte $0B
BE7E  35 00    AND $00,X
BE80  00       BRK
BE81  38       SEC
BE82  35 37    AND $37,X
BE84  4B       .byte $4B
BE85  18       CLC
BE86  07 3F    RMB0 $3F
BE88  00       BRK
BE89  38       SEC
BE8A  35 37    AND $37,X
BE8C  5B       .byte $5B
BE8D  04 35    TSB $35
BE8F  35 00    AND $00,X
BE91  38       SEC
BE92  35 37    AND $37,X
BE94  4C 41 35 JMP L3541
BE97  40       RTI
BE98  00       BRK
BE99  39 35 39 AND $3935,Y
BE9C  5C       .byte $5C
BE9D  21 1F    AND ($1F,X)
BE9F  20 00 21 JSR L2100
BEA2  1F 20 4D BBR1 $20,LBEF2
BEA5  3B       .byte $3B
BEA6  1F 3A 00 BBR1 $3A,LBEA9

LBEA9:
BEA9  21 1F    AND ($1F,X)
BEAB  20 5D 05 JSR L055D
BEAE  1F 1F 00 BBR1 $1F,LBEB1

LBEB1:
BEB1  21 1F    AND ($1F,X)
BEB3  20 4E 12 JSR L124E
BEB6  1F 3E 00 BBR1 $3E,LBEB9

LBEB9:
BEB9  21 1F    AND ($1F,X)
BEBB  20 5E 15 JSR L155E
BEBE  13       .byte $13
BEBF  00       BRK
BEC0  00       BRK
BEC1  15 13    ORA $13,X
BEC3  16 4F    ASL $4F,X
BEC5  1C 13 17 TRB $1713
BEC8  42       .byte $42
BEC9  15 13    ORA $13,X
BECB  16 5F    ASL $5F,X
BECD  09 13    ORA #$13
BECF  13       .byte $13
BED0  00       BRK
BED1  00       BRK
BED2  13       .byte $13
BED3  16 50    ASL $50,X
BED5  10 13    BPL LBEEA
BED7  27 36    RMB2 $36
BED9  00       BRK
BEDA  13       .byte $13
BEDB  16 60    ASL $60,X
BEDD  14 31    TRB $31
BEDF  00       BRK
BEE0  00       BRK
BEE1  14 31    TRB $31
BEE3  1A       INC
BEE4  51 1B    EOR ($1B),Y
BEE6  31 23    AND ($23),Y
BEE8  00       BRK
BEE9  14 31    TRB $31
BEEB  1A       INC
BEEC  61 06    ADC ($06,X)
BEEE  31 31    AND ($31),Y
BEF0  00       BRK
BEF1  00       BRK

LBEF2:
BEF2  31 1A    AND ($1A),Y
BEF4  52 33    EOR ($33)
BEF6  31 2B    AND ($2B),Y
BEF8  00       BRK
BEF9  00       BRK
BEFA  31 1A    AND ($1A),Y
BEFC  62       .byte $62

cmd_chars:
BEFD  48       PHA
BEFE  4D 3E 52 EOR $523E
BF01  3B       .byte $3B
BF02  47 44    RMB4 $44
BF04  41 58    EOR ($58,X)
BF06  00       BRK

cmd_addrs:
BF07  1E B2 AF ASL $AFB2,X
BF0A  B0 FF    BCS LBF0B
BF0C  B0 37    BCS LBF45
BF0E  B1 86    LDA ($86),Y
BF10  B1 E7    LDA ($E7),Y
BF12  B1 43    LDA ($43),Y
BF14  B5 B1    LDA $B1,X
BF16  B7 AC    SMB3 $AC
BF18  B0 0C    BCS LBF26
BF1A  4D 69 63 EOR $6369
BF1D  6D 6F 6E ADC $6E6F
BF20  20 76 30 JSR L3076
BF23  2E 39 66 ROL $6639

LBF26:
BF26  0D 0D 00 ORA $000D

reg_header:
BF29  20 20 20 JSR L2020
BF2C  50 43    BVC LBF71
BF2E  20 20 41 JSR L4120
BF31  20 20 58 JSR L5820
BF34  20 20 59 JSR L5920
BF37  20 20 53 JSR L5320
BF3A  20 20 20 JSR L2020
BF3D  4E 56 2D LSR $2D56
BF40  42       .byte $42
BF41  44       .byte $44
BF42  49 5A    EOR #$5A
BF44  43       .byte $43

LBF45:
BF45  0D 00 4F ORA $4F00
BF48  4B       .byte $4B
BF49  0D 00 4D ORA $4D00
BF4C  20 5B 73 JSR L735B
BF4F  20 5B 65 JSR L655B
BF52  5D 5D 0D EOR $0D5D,X
BF55  3E 20 5B ROL $5B20,X
BF58  73       .byte $73
BF59  5D 20 62 EOR $6220,X
BF5C  74 5B    STZ $5B,X
BF5E  73       .byte $73
BF5F  5D 0D 52 EOR $520D,X
BF62  0D 3B 20 ORA $203B
BF65  50 43    BVC LBFAA
BF67  20 41 20 JSR L2041
BF6A  58       CLI
BF6B  20 59 20 JSR L2059
BF6E  53       .byte $53
BF6F  20 50 0D JSR L0D50
BF72  47 20    RMB4 $20
BF74  5B       .byte $5B
BF75  73       .byte $73
BF76  5D 0D 44 EOR $440D,X
BF79  20 5B 73 JSR L735B
BF7C  5D 0D 41 EOR $410D,X
BF7F  20 5B 73 JSR L735B
BF82  5D 20 73 EOR $7320,X
BF85  74 6D    STZ $6D,X
BF87  74 0D    STZ $0D,X
BF89  58       CLI
BF8A  0D 48 0D ORA $0D48
BF8D  00       BRK
